; Function Attrs: mustprogress uwtable
define hidden void @_ZN2cv3ccm9Operation5clearEv(ptr noundef nonnull align 8 dereferenceable(144) %0) local_unnamed_addr #0 align 2 personality ptr @__gxx_personality_v0 {
  %2 = alloca %"class.cv::Mat", align 8
  call void @_ZN2cv3MatC1Ev(ptr noundef nonnull align 8 dereferenceable(96) %2) #13
  %3 = getelementptr inbounds i8, ptr %0, i64 16
  %4 = invoke noundef nonnull align 8 dereferenceable(96) ptr @_ZN2cv3MataSEOS0_(ptr noundef nonnull align 8 dereferenceable(96) %3, ptr noundef nonnull align 8 dereferenceable(96) %2)
          to label %5 unwind label %6

5:                                                ; preds = %1
  call void @_ZN2cv3MatD1Ev(ptr noundef nonnull align 8 dereferenceable(96) %2) #13
  ret void

6:                                                ; preds = %1
  %7 = landingpad { ptr, i32 }
          cleanup
  call void @_ZN2cv3MatD1Ev(ptr noundef nonnull align 8 dereferenceable(96) %2) #13
  resume { ptr, i32 } %7
}